; Function Attrs: mustprogress nofree norecurse nosync nounwind willreturn memory(readwrite, inaccessiblemem: none) uwtable
define void @Wln_ObjUpdateType(ptr noundef captures(none) %0, i32 noundef %1, i32 noundef %2) local_unnamed_addr #3 {
  %4 = getelementptr inbounds nuw i8, ptr %0, i64 320
  %5 = getelementptr i8, ptr %0, i64 80
  %.val = load ptr, ptr %5, align 8
  %6 = sext i32 %1 to i64
  %7 = getelementptr inbounds i32, ptr %.val, i64 %6
  %8 = load i32, ptr %7, align 4
  %9 = sext i32 %8 to i64
  %10 = getelementptr inbounds [99 x i32], ptr %4, i64 0, i64 %9
  %11 = load i32, ptr %10, align 4
  %12 = add nsw i32 %11, -1
  store i32 %12, ptr %10, align 4
  %.val9 = load ptr, ptr %5, align 8
  %13 = getelementptr inbounds i32, ptr %.val9, i64 %6
  store i32 %2, ptr %13, align 4
  %.val8 = load ptr, ptr %5, align 8
  %14 = getelementptr inbounds i32, ptr %.val8, i64 %6
  %15 = load i32, ptr %14, align 4
  %16 = sext i32 %15 to i64
  %17 = getelementptr inbounds [99 x i32], ptr %4, i64 0, i64 %16
  %18 = load i32, ptr %17, align 4
  %19 = add nsw i32 %18, 1
  store i32 %19, ptr %17, align 4
  ret void
}